target datalayout = "e-m:e-p270:32:32-p271:32:32-p272:64:64-i64:64-i128:128-f80:128-n8:16:32:64-S128"
target triple = "x86_64-pc-linux-gnu"

%struct.Sbd_Par_t_ = type { i32, i32, i32, i32, i32, i32, i32, i32, i32, i32, i32, i32, i32, i32, i32, i32, i32 }
%struct.Gia_Man_t_ = type { ptr, ptr, i32, i32, i32, i32, ptr, ptr, i32, i32, i32, ptr, ptr, %struct.Vec_Int_t_, %struct.Vec_Int_t_, i32, i32, i32, %struct.Vec_Int_t_, ptr, ptr, ptr, i32, i32, i32, i32, ptr, ptr, ptr, ptr, ptr, i32, i32, ptr, i32, ptr, ptr, ptr, ptr, ptr, ptr, ptr, ptr, ptr, ptr, ptr, ptr, ptr, ptr, ptr, ptr, ptr, ptr, %struct.Vec_Int_t_, %struct.Vec_Int_t_, ptr, ptr, ptr, ptr, ptr, ptr, ptr, ptr, ptr, ptr, ptr, ptr, ptr, ptr, ptr, ptr, ptr, ptr, ptr, ptr, ptr, i32, float, float, ptr, ptr, i32, ptr, ptr, ptr, ptr, ptr, ptr, ptr, ptr, ptr, ptr, ptr, ptr, ptr, ptr, ptr, i64, i64, ptr, ptr, i32, i32, i32, i32, i32, i32, i32, i32, i32, i32, i32, i32, ptr, ptr, ptr, ptr, ptr, ptr, ptr, ptr, i32, i32, i32, ptr, i32, i32, ptr, ptr, ptr, ptr, ptr, ptr, i32, i32, ptr, %struct.Vec_Int_t_, %struct.Vec_Int_t_, %struct.Vec_Int_t_, ptr, ptr, ptr, i32, i32, i32, i32, ptr, ptr, ptr, ptr, ptr }
%struct.Vec_Int_t_ = type { i32, i32, ptr }
%struct.Gia_Obj_t_ = type <{ i64, i32 }>
%struct.Sbd_Man_t_ = type { ptr, ptr, ptr, ptr, ptr, ptr, ptr, [4 x ptr], ptr, ptr, ptr, [6 x i32], i32, i32, i64, i64, i64, i64, i64, i64, i64, i64, i64, ptr, ptr, i32, i32, ptr, ptr, ptr, ptr, ptr, ptr, ptr, ptr, [2 x ptr], ptr, ptr }
%struct.Vec_Wrd_t_ = type { i32, i32, ptr }

; Function Attrs: inlinehint nounwind uwtable
define internal ptr @Vec_WrdEntryP(ptr noundef %0, i32 noundef %1) #3 {
  %3 = alloca ptr, align 8
  %4 = alloca i32, align 4
  store ptr %0, ptr %3, align 8, !tbaa !86
  store i32 %1, ptr %4, align 4, !tbaa !29
  %5 = load ptr, ptr %3, align 8, !tbaa !86
  %6 = getelementptr inbounds nuw %struct.Vec_Wrd_t_, ptr %5, i32 0, i32 2
  %7 = load ptr, ptr %6, align 8, !tbaa !109
  %8 = load i32, ptr %4, align 4, !tbaa !29
  %9 = sext i32 %8 to i64
  %10 = getelementptr inbounds i64, ptr %7, i64 %9
  ret ptr %10
}

; Function Attrs: inlinehint nounwind uwtable
define internal ptr @Sbd_ObjSim3(ptr noundef %0, i32 noundef %1) #3 {
  %3 = alloca ptr, align 8
  %4 = alloca i32, align 4
  store ptr %0, ptr %3, align 8, !tbaa !73
  store i32 %1, ptr %4, align 4, !tbaa !29
  %5 = load ptr, ptr %3, align 8, !tbaa !73
  %6 = getelementptr inbounds nuw %struct.Sbd_Man_t_, ptr %5, i32 0, i32 7
  %7 = getelementptr inbounds [4 x ptr], ptr %6, i64 0, i64 3
  %8 = load ptr, ptr %7, align 8, !tbaa !86
  %9 = load ptr, ptr %3, align 8, !tbaa !73
  %10 = getelementptr inbounds nuw %struct.Sbd_Man_t_, ptr %9, i32 0, i32 0
  %11 = load ptr, ptr %10, align 8, !tbaa !80
  %12 = getelementptr inbounds nuw %struct.Sbd_Par_t_, ptr %11, i32 0, i32 8
  %13 = load i32, ptr %12, align 4, !tbaa !18
  %14 = load i32, ptr %4, align 4, !tbaa !29
  %15 = mul nsw i32 %13, %14
  %16 = call ptr @Vec_WrdEntryP(ptr noundef %8, i32 noundef %15)
  ret ptr %16
}

; Function Attrs: inlinehint nounwind uwtable
define internal ptr @Sbd_ObjSim2(ptr noundef %0, i32 noundef %1) #3 {
  %3 = alloca ptr, align 8
  %4 = alloca i32, align 4
  store ptr %0, ptr %3, align 8, !tbaa !73
  store i32 %1, ptr %4, align 4, !tbaa !29
  %5 = load ptr, ptr %3, align 8, !tbaa !73
  %6 = getelementptr inbounds nuw %struct.Sbd_Man_t_, ptr %5, i32 0, i32 7
  %7 = getelementptr inbounds [4 x ptr], ptr %6, i64 0, i64 2
  %8 = load ptr, ptr %7, align 8, !tbaa !86
  %9 = load ptr, ptr %3, align 8, !tbaa !73
  %10 = getelementptr inbounds nuw %struct.Sbd_Man_t_, ptr %9, i32 0, i32 0
  %11 = load ptr, ptr %10, align 8, !tbaa !80
  %12 = getelementptr inbounds nuw %struct.Sbd_Par_t_, ptr %11, i32 0, i32 8
  %13 = load i32, ptr %12, align 4, !tbaa !18
  %14 = load i32, ptr %4, align 4, !tbaa !29
  %15 = mul nsw i32 %13, %14
  %16 = call ptr @Vec_WrdEntryP(ptr noundef %8, i32 noundef %15)
  ret ptr %16
}

; Function Attrs: inlinehint nounwind uwtable
define internal i32 @Gia_ObjFaninId1(ptr noundef %0, i32 noundef %1) #3 {
  %3 = alloca ptr, align 8
  %4 = alloca i32, align 4
  store ptr %0, ptr %3, align 8, !tbaa !66
  store i32 %1, ptr %4, align 4, !tbaa !29
  %5 = load i32, ptr %4, align 4, !tbaa !29
  %6 = load ptr, ptr %3, align 8, !tbaa !66
  %7 = load i64, ptr %6, align 4
  %8 = lshr i64 %7, 32
  %9 = and i64 %8, 536870911
  %10 = trunc i64 %9 to i32
  %11 = sub nsw i32 %5, %10
  ret i32 %11
}

; Function Attrs: inlinehint nounwind uwtable
define internal i32 @Gia_ObjFaninId0(ptr noundef %0, i32 noundef %1) #3 {
  %3 = alloca ptr, align 8
  %4 = alloca i32, align 4
  store ptr %0, ptr %3, align 8, !tbaa !66
  store i32 %1, ptr %4, align 4, !tbaa !29
  %5 = load i32, ptr %4, align 4, !tbaa !29
  %6 = load ptr, ptr %3, align 8, !tbaa !66
  %7 = load i64, ptr %6, align 4
  %8 = and i64 %7, 536870911
  %9 = trunc i64 %8 to i32
  %10 = sub nsw i32 %5, %9
  ret i32 %10
}

; Function Attrs: inlinehint nounwind uwtable
define internal ptr @Gia_ManObj(ptr noundef %0, i32 noundef %1) #3 {
  %3 = alloca ptr, align 8
  %4 = alloca i32, align 4
  store ptr %0, ptr %3, align 8, !tbaa !27
  store i32 %1, ptr %4, align 4, !tbaa !29
  %5 = load ptr, ptr %3, align 8, !tbaa !27
  %6 = getelementptr inbounds nuw %struct.Gia_Man_t_, ptr %5, i32 0, i32 6
  %7 = load ptr, ptr %6, align 8, !tbaa !67
  %8 = load i32, ptr %4, align 4, !tbaa !29
  %9 = sext i32 %8 to i64
  %10 = getelementptr inbounds %struct.Gia_Obj_t_, ptr %7, i64 %9
  ret ptr %10
}

; Function Attrs: nounwind uwtable
define void @Sbd_ManPropagateControlOne(ptr noundef %0, i32 noundef %1) #0 {
  %3 = alloca ptr, align 8
  %4 = alloca i32, align 4
  %5 = alloca ptr, align 8
  %6 = alloca i32, align 4
  %7 = alloca i32, align 4
  %8 = alloca i32, align 4
  %9 = alloca ptr, align 8
  %10 = alloca ptr, align 8
  %11 = alloca ptr, align 8
  %12 = alloca ptr, align 8
  %13 = alloca ptr, align 8
  %14 = alloca ptr, align 8
  store ptr %0, ptr %3, align 8, !tbaa !73
  store i32 %1, ptr %4, align 4, !tbaa !29
  call void @llvm.lifetime.start.p0(i64 8, ptr %5) #13
  %15 = load ptr, ptr %3, align 8, !tbaa !73
  %16 = getelementptr inbounds nuw %struct.Sbd_Man_t_, ptr %15, i32 0, i32 1
  %17 = load ptr, ptr %16, align 8, !tbaa !81
  %18 = load i32, ptr %4, align 4, !tbaa !29
  %19 = call ptr @Gia_ManObj(ptr noundef %17, i32 noundef %18)
  store ptr %19, ptr %5, align 8, !tbaa !66
  call void @llvm.lifetime.start.p0(i64 4, ptr %6) #13
  call void @llvm.lifetime.start.p0(i64 4, ptr %7) #13
  %20 = load ptr, ptr %5, align 8, !tbaa !66
  %21 = load i32, ptr %4, align 4, !tbaa !29
  %22 = call i32 @Gia_ObjFaninId0(ptr noundef %20, i32 noundef %21)
  store i32 %22, ptr %7, align 4, !tbaa !29
  call void @llvm.lifetime.start.p0(i64 4, ptr %8) #13
  %23 = load ptr, ptr %5, align 8, !tbaa !66
  %24 = load i32, ptr %4, align 4, !tbaa !29
  %25 = call i32 @Gia_ObjFaninId1(ptr noundef %23, i32 noundef %24)
  store i32 %25, ptr %8, align 4, !tbaa !29
  call void @llvm.lifetime.start.p0(i64 8, ptr %9) #13
  %26 = load ptr, ptr %3, align 8, !tbaa !73
  %27 = load i32, ptr %4, align 4, !tbaa !29
  %28 = call ptr @Sbd_ObjSim2(ptr noundef %26, i32 noundef %27)
  store ptr %28, ptr %9, align 8, !tbaa !116
  call void @llvm.lifetime.start.p0(i64 8, ptr %10) #13
  %29 = load ptr, ptr %3, align 8, !tbaa !73
  %30 = load i32, ptr %7, align 4, !tbaa !29
  %31 = call ptr @Sbd_ObjSim2(ptr noundef %29, i32 noundef %30)
  store ptr %31, ptr %10, align 8, !tbaa !116
  call void @llvm.lifetime.start.p0(i64 8, ptr %11) #13
  %32 = load ptr, ptr %3, align 8, !tbaa !73
  %33 = load i32, ptr %8, align 4, !tbaa !29
  %34 = call ptr @Sbd_ObjSim2(ptr noundef %32, i32 noundef %33)
  store ptr %34, ptr %11, align 8, !tbaa !116
  call void @llvm.lifetime.start.p0(i64 8, ptr %12) #13
  %35 = load ptr, ptr %3, align 8, !tbaa !73
  %36 = load i32, ptr %4, align 4, !tbaa !29
  %37 = call ptr @Sbd_ObjSim3(ptr noundef %35, i32 noundef %36)
  store ptr %37, ptr %12, align 8, !tbaa !116
  call void @llvm.lifetime.start.p0(i64 8, ptr %13) #13
  %38 = load ptr, ptr %3, align 8, !tbaa !73
  %39 = load i32, ptr %7, align 4, !tbaa !29
  %40 = call ptr @Sbd_ObjSim3(ptr noundef %38, i32 noundef %39)
  store ptr %40, ptr %13, align 8, !tbaa !116
  call void @llvm.lifetime.start.p0(i64 8, ptr %14) #13
  %41 = load ptr, ptr %3, align 8, !tbaa !73
  %42 = load i32, ptr %8, align 4, !tbaa !29
  %43 = call ptr @Sbd_ObjSim3(ptr noundef %41, i32 noundef %42)
  store ptr %43, ptr %14, align 8, !tbaa !116
  store i32 0, ptr %6, align 4, !tbaa !29
  br label %44

44:                                               ; preds = %97, %2
  %45 = load i32, ptr %6, align 4, !tbaa !29
  %46 = load ptr, ptr %3, align 8, !tbaa !73
  %47 = getelementptr inbounds nuw %struct.Sbd_Man_t_, ptr %46, i32 0, i32 0
  %48 = load ptr, ptr %47, align 8, !tbaa !80
  %49 = getelementptr inbounds nuw %struct.Sbd_Par_t_, ptr %48, i32 0, i32 8
  %50 = load i32, ptr %49, align 4, !tbaa !18
  %51 = icmp slt i32 %45, %50
  br i1 %51, label %52, label %100

52:                                               ; preds = %44
  %53 = load ptr, ptr %9, align 8, !tbaa !116
  %54 = load i32, ptr %6, align 4, !tbaa !29
  %55 = sext i32 %54 to i64
  %56 = getelementptr inbounds i64, ptr %53, i64 %55
  %57 = load i64, ptr %56, align 8, !tbaa !101
  %58 = load ptr, ptr %10, align 8, !tbaa !116
  %59 = load i32, ptr %6, align 4, !tbaa !29
  %60 = sext i32 %59 to i64
  %61 = getelementptr inbounds i64, ptr %58, i64 %60
  %62 = load i64, ptr %61, align 8, !tbaa !101
  %63 = or i64 %62, %57
  store i64 %63, ptr %61, align 8, !tbaa !101
  %64 = load ptr, ptr %9, align 8, !tbaa !116
  %65 = load i32, ptr %6, align 4, !tbaa !29
  %66 = sext i32 %65 to i64
  %67 = getelementptr inbounds i64, ptr %64, i64 %66
  %68 = load i64, ptr %67, align 8, !tbaa !101
  %69 = load ptr, ptr %11, align 8, !tbaa !116
  %70 = load i32, ptr %6, align 4, !tbaa !29
  %71 = sext i32 %70 to i64
  %72 = getelementptr inbounds i64, ptr %69, i64 %71
  %73 = load i64, ptr %72, align 8, !tbaa !101
  %74 = or i64 %73, %68
  store i64 %74, ptr %72, align 8, !tbaa !101
  %75 = load ptr, ptr %12, align 8, !tbaa !116
  %76 = load i32, ptr %6, align 4, !tbaa !29
  %77 = sext i32 %76 to i64
  %78 = getelementptr inbounds i64, ptr %75, i64 %77
  %79 = load i64, ptr %78, align 8, !tbaa !101
  %80 = load ptr, ptr %13, align 8, !tbaa !116
  %81 = load i32, ptr %6, align 4, !tbaa !29
  %82 = sext i32 %81 to i64
  %83 = getelementptr inbounds i64, ptr %80, i64 %82
  %84 = load i64, ptr %83, align 8, !tbaa !101
  %85 = or i64 %84, %79
  store i64 %85, ptr %83, align 8, !tbaa !101
  %86 = load ptr, ptr %12, align 8, !tbaa !116
  %87 = load i32, ptr %6, align 4, !tbaa !29
  %88 = sext i32 %87 to i64
  %89 = getelementptr inbounds i64, ptr %86, i64 %88
  %90 = load i64, ptr %89, align 8, !tbaa !101
  %91 = load ptr, ptr %14, align 8, !tbaa !116
  %92 = load i32, ptr %6, align 4, !tbaa !29
  %93 = sext i32 %92 to i64
  %94 = getelementptr inbounds i64, ptr %91, i64 %93
  %95 = load i64, ptr %94, align 8, !tbaa !101
  %96 = or i64 %95, %90
  store i64 %96, ptr %94, align 8, !tbaa !101
  br label %97

97:                                               ; preds = %52
  %98 = load i32, ptr %6, align 4, !tbaa !29
  %99 = add nsw i32 %98, 1
  store i32 %99, ptr %6, align 4, !tbaa !29
  br label %44, !llvm.loop !117

100:                                              ; preds = %44
  call void @llvm.lifetime.end.p0(i64 8, ptr %14) #13
  call void @llvm.lifetime.end.p0(i64 8, ptr %13) #13
  call void @llvm.lifetime.end.p0(i64 8, ptr %12) #13
  call void @llvm.lifetime.end.p0(i64 8, ptr %11) #13
  call void @llvm.lifetime.end.p0(i64 8, ptr %10) #13
  call void @llvm.lifetime.end.p0(i64 8, ptr %9) #13
  call void @llvm.lifetime.end.p0(i64 4, ptr %8) #13
  call void @llvm.lifetime.end.p0(i64 4, ptr %7) #13
  call void @llvm.lifetime.end.p0(i64 4, ptr %6) #13
  call void @llvm.lifetime.end.p0(i64 8, ptr %5) #13
  ret void
}