; Function Attrs: nofree norecurse nosync nounwind memory(readwrite, inaccessiblemem: none) uwtable
define void @Sbd_ManPropagateControlOne(ptr noundef readonly captures(none) %0, i32 noundef %1) local_unnamed_addr #8 {
  %3 = getelementptr inbounds nuw i8, ptr %0, i64 8
  %4 = load ptr, ptr %3, align 8, !tbaa !75
  %5 = getelementptr i8, ptr %4, i64 32
  %.val = load ptr, ptr %5, align 8, !tbaa !55
  %6 = sext i32 %1 to i64
  %7 = getelementptr inbounds %struct.Gia_Obj_t_, ptr %.val, i64 %6
  %.val36 = load i64, ptr %7, align 4
  %8 = trunc i64 %.val36 to i32
  %9 = and i32 %8, 536870911
  %10 = sub nsw i32 %1, %9
  %11 = lshr i64 %.val36, 32
  %12 = trunc nuw i64 %11 to i32
  %13 = and i32 %12, 536870911
  %14 = sub nsw i32 %1, %13
  %.val38 = load ptr, ptr %0, align 8, !tbaa !74
  %15 = getelementptr i8, ptr %0, i64 72
  %.val39 = load ptr, ptr %15, align 8, !tbaa !85
  %16 = getelementptr i8, ptr %.val38, i64 32
  %.val38.val = load i32, ptr %16, align 4, !tbaa !15
  %17 = getelementptr i8, ptr %.val39, i64 8
  %.val39.val = load ptr, ptr %17, align 8, !tbaa !83
  %18 = mul nsw i32 %.val38.val, %1
  %19 = sext i32 %18 to i64
  %20 = getelementptr inbounds i64, ptr %.val39.val, i64 %19
  %21 = mul nsw i32 %10, %.val38.val
  %22 = sext i32 %21 to i64
  %23 = getelementptr inbounds i64, ptr %.val39.val, i64 %22
  %24 = mul nsw i32 %14, %.val38.val
  %25 = sext i32 %24 to i64
  %26 = getelementptr inbounds i64, ptr %.val39.val, i64 %25
  %27 = getelementptr i8, ptr %0, i64 80
  %.val45 = load ptr, ptr %27, align 8, !tbaa !85
  %28 = getelementptr i8, ptr %.val45, i64 8
  %.val45.val = load ptr, ptr %28, align 8, !tbaa !83
  %29 = getelementptr inbounds i64, ptr %.val45.val, i64 %19
  %30 = getelementptr inbounds i64, ptr %.val45.val, i64 %22
  %31 = getelementptr inbounds i64, ptr %.val45.val, i64 %25
  %32 = icmp sgt i32 %.val38.val, 0
  br i1 %32, label %.lr.ph.preheader, label %._crit_edge

.lr.ph.preheader:                                 ; preds = %2
  %wide.trip.count = zext nneg i32 %.val38.val to i64
  br label %.lr.ph

.lr.ph:                                           ; preds = %.lr.ph.preheader, %.lr.ph
  %indvars.iv = phi i64 [ 0, %.lr.ph.preheader ], [ %indvars.iv.next, %.lr.ph ]
  %33 = getelementptr inbounds nuw i64, ptr %20, i64 %indvars.iv
  %34 = load i64, ptr %33, align 8, !tbaa !100
  %35 = getelementptr inbounds nuw i64, ptr %23, i64 %indvars.iv
  %36 = load i64, ptr %35, align 8, !tbaa !100
  %37 = or i64 %36, %34
  store i64 %37, ptr %35, align 8, !tbaa !100
  %38 = load i64, ptr %33, align 8, !tbaa !100
  %39 = getelementptr inbounds nuw i64, ptr %26, i64 %indvars.iv
  %40 = load i64, ptr %39, align 8, !tbaa !100
  %41 = or i64 %40, %38
  store i64 %41, ptr %39, align 8, !tbaa !100
  %42 = getelementptr inbounds nuw i64, ptr %29, i64 %indvars.iv
  %43 = load i64, ptr %42, align 8, !tbaa !100
  %44 = getelementptr inbounds nuw i64, ptr %30, i64 %indvars.iv
  %45 = load i64, ptr %44, align 8, !tbaa !100
  %46 = or i64 %45, %43
  store i64 %46, ptr %44, align 8, !tbaa !100
  %47 = load i64, ptr %42, align 8, !tbaa !100
  %48 = getelementptr inbounds nuw i64, ptr %31, i64 %indvars.iv
  %49 = load i64, ptr %48, align 8, !tbaa !100
  %50 = or i64 %49, %47
  store i64 %50, ptr %48, align 8, !tbaa !100
  %indvars.iv.next = add nuw nsw i64 %indvars.iv, 1
  %exitcond.not = icmp eq i64 %indvars.iv.next, %wide.trip.count
  br i1 %exitcond.not, label %._crit_edge, label %.lr.ph, !llvm.loop !108

._crit_edge:                                      ; preds = %.lr.ph, %2
  ret void
}